target datalayout = "e-m:e-p270:32:32-p271:32:32-p272:64:64-i64:64-i128:128-f80:128-n8:16:32:64-S128"
target triple = "x86_64-unknown-linux-gnu"

%"struct.ClipperLib::IntPoint" = type { i64, i64 }
%"struct.ClipperLib::OutPt" = type { i32, %"struct.ClipperLib::IntPoint", ptr, ptr }
%"struct.ClipperLib::OutRec" = type { i32, i8, i8, ptr, ptr, ptr, ptr }
%"class.__gnu_cxx::__normal_iterator" = type { ptr }
%"class.ClipperLib::ClipperBase" = type { ptr, %"class.__gnu_cxx::__normal_iterator", %"class.std::vector.5", i8, %"class.std::vector.10", i8, i8, %"class.std::vector.15", ptr, %"class.std::priority_queue" }
%"class.std::vector.5" = type { %"struct.std::_Vector_base.6" }
%"struct.std::_Vector_base.6" = type { %"struct.std::_Vector_base<ClipperLib::LocalMinimum, std::allocator<ClipperLib::LocalMinimum>>::_Vector_impl" }
%"struct.std::_Vector_base<ClipperLib::LocalMinimum, std::allocator<ClipperLib::LocalMinimum>>::_Vector_impl" = type { %"struct.std::_Vector_base<ClipperLib::LocalMinimum, std::allocator<ClipperLib::LocalMinimum>>::_Vector_impl_data" }
%"struct.std::_Vector_base<ClipperLib::LocalMinimum, std::allocator<ClipperLib::LocalMinimum>>::_Vector_impl_data" = type { ptr, ptr, ptr }
%"class.std::vector.10" = type { %"struct.std::_Vector_base.11" }
%"struct.std::_Vector_base.11" = type { %"struct.std::_Vector_base<ClipperLib::TEdge *, std::allocator<ClipperLib::TEdge *>>::_Vector_impl" }
%"struct.std::_Vector_base<ClipperLib::TEdge *, std::allocator<ClipperLib::TEdge *>>::_Vector_impl" = type { %"struct.std::_Vector_base<ClipperLib::TEdge *, std::allocator<ClipperLib::TEdge *>>::_Vector_impl_data" }
%"struct.std::_Vector_base<ClipperLib::TEdge *, std::allocator<ClipperLib::TEdge *>>::_Vector_impl_data" = type { ptr, ptr, ptr }
%"class.std::vector.15" = type { %"struct.std::_Vector_base.16" }
%"struct.std::_Vector_base.16" = type { %"struct.std::_Vector_base<ClipperLib::OutRec *, std::allocator<ClipperLib::OutRec *>>::_Vector_impl" }
%"struct.std::_Vector_base<ClipperLib::OutRec *, std::allocator<ClipperLib::OutRec *>>::_Vector_impl" = type { %"struct.std::_Vector_base<ClipperLib::OutRec *, std::allocator<ClipperLib::OutRec *>>::_Vector_impl_data" }
%"struct.std::_Vector_base<ClipperLib::OutRec *, std::allocator<ClipperLib::OutRec *>>::_Vector_impl_data" = type { ptr, ptr, ptr }
%"class.std::priority_queue" = type <{ %"class.std::vector.20", %"struct.std::less", [7 x i8] }>
%"class.std::vector.20" = type { %"struct.std::_Vector_base.21" }
%"struct.std::_Vector_base.21" = type { %"struct.std::_Vector_base<long long, std::allocator<long long>>::_Vector_impl" }
%"struct.std::_Vector_base<long long, std::allocator<long long>>::_Vector_impl" = type { %"struct.std::_Vector_base<long long, std::allocator<long long>>::_Vector_impl_data" }
%"struct.std::_Vector_base<long long, std::allocator<long long>>::_Vector_impl_data" = type { ptr, ptr, ptr }
%"struct.std::less" = type { i8 }

; Function Attrs: mustprogress nounwind uwtable
define linkonce_odr hidden void @_ZNSt12_Destroy_auxILb1EE9__destroyIPPN10ClipperLib6OutRecEEEvT_S6_(ptr noundef %0, ptr noundef %1) #1 comdat align 2 {
entry:
  %.addr = alloca ptr, align 8
  %.addr1 = alloca ptr, align 8
  store ptr %0, ptr %.addr, align 8
  store ptr %1, ptr %.addr1, align 8
  ret void
}

; Function Attrs: mustprogress uwtable
define linkonce_odr hidden void @_ZSt8_DestroyIPPN10ClipperLib6OutRecEEvT_S4_(ptr noundef %__first, ptr noundef %__last) #0 comdat {
entry:
  %__first.addr = alloca ptr, align 8
  %__last.addr = alloca ptr, align 8
  store ptr %__first, ptr %__first.addr, align 8
  store ptr %__last, ptr %__last.addr, align 8
  %0 = load ptr, ptr %__first.addr, align 8
  %1 = load ptr, ptr %__last.addr, align 8
  call void @_ZNSt12_Destroy_auxILb1EE9__destroyIPPN10ClipperLib6OutRecEEEvT_S6_(ptr noundef %0, ptr noundef %1)
  ret void
}

; Function Attrs: noreturn nounwind uwtable
define linkonce_odr hidden void @__clang_call_terminate(ptr noundef %0) #5 comdat {
  %2 = call ptr @__cxa_begin_catch(ptr %0) #13
  call void @_ZSt9terminatev() #15
  unreachable
}

; Function Attrs: mustprogress uwtable
define linkonce_odr hidden void @_ZSt8_DestroyIPPN10ClipperLib6OutRecES2_EvT_S4_RSaIT0_E(ptr noundef %__first, ptr noundef %__last, ptr noundef nonnull align 1 dereferenceable(1) %0) #0 comdat {
entry:
  %__first.addr = alloca ptr, align 8
  %__last.addr = alloca ptr, align 8
  %.addr = alloca ptr, align 8
  store ptr %__first, ptr %__first.addr, align 8
  store ptr %__last, ptr %__last.addr, align 8
  store ptr %0, ptr %.addr, align 8
  %1 = load ptr, ptr %__first.addr, align 8
  %2 = load ptr, ptr %__last.addr, align 8
  call void @_ZSt8_DestroyIPPN10ClipperLib6OutRecEEvT_S4_(ptr noundef %1, ptr noundef %2)
  ret void
}

; Function Attrs: mustprogress nounwind uwtable
define linkonce_odr hidden noundef nonnull align 1 dereferenceable(1) ptr @_ZNSt12_Vector_baseIPN10ClipperLib6OutRecESaIS2_EE19_M_get_Tp_allocatorEv(ptr noundef nonnull align 8 dereferenceable(24) %this) #1 comdat align 2 {
entry:
  %this.addr = alloca ptr, align 8
  store ptr %this, ptr %this.addr, align 8
  %this1 = load ptr, ptr %this.addr, align 8
  %_M_impl = getelementptr inbounds %"struct.std::_Vector_base.16", ptr %this1, i32 0, i32 0
  ret ptr %_M_impl
}

; Function Attrs: mustprogress nounwind uwtable
define linkonce_odr hidden void @_ZNSt6vectorIPN10ClipperLib6OutRecESaIS2_EE15_M_erase_at_endEPS2_(ptr noundef nonnull align 8 dereferenceable(24) %this, ptr noundef %__pos) #1 comdat align 2 personality ptr @__gxx_personality_v0 {
entry:
  %this.addr = alloca ptr, align 8
  %__pos.addr = alloca ptr, align 8
  %__n = alloca i64, align 8
  store ptr %this, ptr %this.addr, align 8
  store ptr %__pos, ptr %__pos.addr, align 8
  %this1 = load ptr, ptr %this.addr, align 8
  %_M_impl = getelementptr inbounds %"struct.std::_Vector_base.16", ptr %this1, i32 0, i32 0
  %_M_finish = getelementptr inbounds %"struct.std::_Vector_base<ClipperLib::OutRec *, std::allocator<ClipperLib::OutRec *>>::_Vector_impl_data", ptr %_M_impl, i32 0, i32 1
  %0 = load ptr, ptr %_M_finish, align 8
  %1 = load ptr, ptr %__pos.addr, align 8
  %sub.ptr.lhs.cast = ptrtoint ptr %0 to i64
  %sub.ptr.rhs.cast = ptrtoint ptr %1 to i64
  %sub.ptr.sub = sub i64 %sub.ptr.lhs.cast, %sub.ptr.rhs.cast
  %sub.ptr.div = sdiv exact i64 %sub.ptr.sub, 8
  store i64 %sub.ptr.div, ptr %__n, align 8
  %2 = load i64, ptr %__n, align 8
  %tobool = icmp ne i64 %2, 0
  br i1 %tobool, label %if.then, label %if.end

if.then:                                          ; preds = %entry
  %3 = load ptr, ptr %__pos.addr, align 8
  %_M_impl2 = getelementptr inbounds %"struct.std::_Vector_base.16", ptr %this1, i32 0, i32 0
  %_M_finish3 = getelementptr inbounds %"struct.std::_Vector_base<ClipperLib::OutRec *, std::allocator<ClipperLib::OutRec *>>::_Vector_impl_data", ptr %_M_impl2, i32 0, i32 1
  %4 = load ptr, ptr %_M_finish3, align 8
  %call = call noundef nonnull align 1 dereferenceable(1) ptr @_ZNSt12_Vector_baseIPN10ClipperLib6OutRecESaIS2_EE19_M_get_Tp_allocatorEv(ptr noundef nonnull align 8 dereferenceable(24) %this1) #13
  invoke void @_ZSt8_DestroyIPPN10ClipperLib6OutRecES2_EvT_S4_RSaIT0_E(ptr noundef %3, ptr noundef %4, ptr noundef nonnull align 1 dereferenceable(1) %call)
          to label %invoke.cont unwind label %terminate.lpad

invoke.cont:                                      ; preds = %if.then
  %5 = load ptr, ptr %__pos.addr, align 8
  %_M_impl4 = getelementptr inbounds %"struct.std::_Vector_base.16", ptr %this1, i32 0, i32 0
  %_M_finish5 = getelementptr inbounds %"struct.std::_Vector_base<ClipperLib::OutRec *, std::allocator<ClipperLib::OutRec *>>::_Vector_impl_data", ptr %_M_impl4, i32 0, i32 1
  store ptr %5, ptr %_M_finish5, align 8
  br label %if.end

if.end:                                           ; preds = %invoke.cont, %entry
  ret void

terminate.lpad:                                   ; preds = %if.then
  %6 = landingpad { ptr, i32 }
          catch ptr null
  %7 = extractvalue { ptr, i32 } %6, 0
  call void @__clang_call_terminate(ptr %7) #15
  unreachable
}

; Function Attrs: mustprogress nounwind uwtable
define hidden void @_ZN10ClipperLib13DisposeOutPtsERPNS_5OutPtE(ptr noundef nonnull align 8 dereferenceable(8) %pp) #1 {
entry:
  %pp.addr = alloca ptr, align 8
  %tmpPp = alloca ptr, align 8
  store ptr %pp, ptr %pp.addr, align 8
  %0 = load ptr, ptr %pp.addr, align 8
  %1 = load ptr, ptr %0, align 8
  %cmp = icmp eq ptr %1, null
  br i1 %cmp, label %if.then, label %if.end

if.then:                                          ; preds = %entry
  br label %while.end

if.end:                                           ; preds = %entry
  %2 = load ptr, ptr %pp.addr, align 8
  %3 = load ptr, ptr %2, align 8
  %Prev = getelementptr inbounds %"struct.ClipperLib::OutPt", ptr %3, i32 0, i32 3
  %4 = load ptr, ptr %Prev, align 8
  %Next = getelementptr inbounds %"struct.ClipperLib::OutPt", ptr %4, i32 0, i32 2
  store ptr null, ptr %Next, align 8
  br label %while.cond

while.cond:                                       ; preds = %delete.end, %if.end
  %5 = load ptr, ptr %pp.addr, align 8
  %6 = load ptr, ptr %5, align 8
  %tobool = icmp ne ptr %6, null
  br i1 %tobool, label %while.body, label %while.end

while.body:                                       ; preds = %while.cond
  %7 = load ptr, ptr %pp.addr, align 8
  %8 = load ptr, ptr %7, align 8
  store ptr %8, ptr %tmpPp, align 8
  %9 = load ptr, ptr %pp.addr, align 8
  %10 = load ptr, ptr %9, align 8
  %Next1 = getelementptr inbounds %"struct.ClipperLib::OutPt", ptr %10, i32 0, i32 2
  %11 = load ptr, ptr %Next1, align 8
  %12 = load ptr, ptr %pp.addr, align 8
  store ptr %11, ptr %12, align 8
  %13 = load ptr, ptr %tmpPp, align 8
  %isnull = icmp eq ptr %13, null
  br i1 %isnull, label %delete.end, label %delete.notnull

delete.notnull:                                   ; preds = %while.body
  call void @_ZdlPv(ptr noundef %13) #14
  br label %delete.end

delete.end:                                       ; preds = %delete.notnull, %while.body
  br label %while.cond, !llvm.loop !14

while.end:                                        ; preds = %while.cond, %if.then
  ret void
}

; Function Attrs: mustprogress nounwind uwtable
define linkonce_odr hidden noundef nonnull align 8 dereferenceable(8) ptr @_ZNSt6vectorIPN10ClipperLib6OutRecESaIS2_EEixEm(ptr noundef nonnull align 8 dereferenceable(24) %this, i64 noundef %__n) #1 comdat align 2 {
entry:
  %this.addr = alloca ptr, align 8
  %__n.addr = alloca i64, align 8
  store ptr %this, ptr %this.addr, align 8
  store i64 %__n, ptr %__n.addr, align 8
  %this1 = load ptr, ptr %this.addr, align 8
  %_M_impl = getelementptr inbounds %"struct.std::_Vector_base.16", ptr %this1, i32 0, i32 0
  %_M_start = getelementptr inbounds %"struct.std::_Vector_base<ClipperLib::OutRec *, std::allocator<ClipperLib::OutRec *>>::_Vector_impl_data", ptr %_M_impl, i32 0, i32 0
  %0 = load ptr, ptr %_M_start, align 8
  %1 = load i64, ptr %__n.addr, align 8
  %add.ptr = getelementptr inbounds ptr, ptr %0, i64 %1
  ret ptr %add.ptr
}

; Function Attrs: mustprogress nounwind uwtable
define linkonce_odr hidden void @_ZNSt6vectorIPN10ClipperLib6OutRecESaIS2_EE5clearEv(ptr noundef nonnull align 8 dereferenceable(24) %this) #1 comdat align 2 {
entry:
  %this.addr = alloca ptr, align 8
  store ptr %this, ptr %this.addr, align 8
  %this1 = load ptr, ptr %this.addr, align 8
  %_M_impl = getelementptr inbounds %"struct.std::_Vector_base.16", ptr %this1, i32 0, i32 0
  %_M_start = getelementptr inbounds %"struct.std::_Vector_base<ClipperLib::OutRec *, std::allocator<ClipperLib::OutRec *>>::_Vector_impl_data", ptr %_M_impl, i32 0, i32 0
  %0 = load ptr, ptr %_M_start, align 8
  call void @_ZNSt6vectorIPN10ClipperLib6OutRecESaIS2_EE15_M_erase_at_endEPS2_(ptr noundef nonnull align 8 dereferenceable(24) %this1, ptr noundef %0) #13
  ret void
}

; Function Attrs: mustprogress nounwind uwtable
define hidden void @_ZN10ClipperLib11ClipperBase13DisposeOutRecEm(ptr noundef nonnull align 8 dereferenceable(144) %this, i64 noundef %index) #1 align 2 {
entry:
  %this.addr = alloca ptr, align 8
  %index.addr = alloca i64, align 8
  %outRec = alloca ptr, align 8
  store ptr %this, ptr %this.addr, align 8
  store i64 %index, ptr %index.addr, align 8
  %this1 = load ptr, ptr %this.addr, align 8
  %m_PolyOuts = getelementptr inbounds %"class.ClipperLib::ClipperBase", ptr %this1, i32 0, i32 7
  %0 = load i64, ptr %index.addr, align 8
  %call = call noundef nonnull align 8 dereferenceable(8) ptr @_ZNSt6vectorIPN10ClipperLib6OutRecESaIS2_EEixEm(ptr noundef nonnull align 8 dereferenceable(24) %m_PolyOuts, i64 noundef %0) #13
  %1 = load ptr, ptr %call, align 8
  store ptr %1, ptr %outRec, align 8
  %2 = load ptr, ptr %outRec, align 8
  %Pts = getelementptr inbounds %"struct.ClipperLib::OutRec", ptr %2, i32 0, i32 5
  %3 = load ptr, ptr %Pts, align 8
  %tobool = icmp ne ptr %3, null
  br i1 %tobool, label %if.then, label %if.end

if.then:                                          ; preds = %entry
  %4 = load ptr, ptr %outRec, align 8
  %Pts2 = getelementptr inbounds %"struct.ClipperLib::OutRec", ptr %4, i32 0, i32 5
  call void @_ZN10ClipperLib13DisposeOutPtsERPNS_5OutPtE(ptr noundef nonnull align 8 dereferenceable(8) %Pts2)
  br label %if.end

if.end:                                           ; preds = %if.then, %entry
  %5 = load ptr, ptr %outRec, align 8
  %isnull = icmp eq ptr %5, null
  br i1 %isnull, label %delete.end, label %delete.notnull

delete.notnull:                                   ; preds = %if.end
  call void @_ZdlPv(ptr noundef %5) #14
  br label %delete.end

delete.end:                                       ; preds = %delete.notnull, %if.end
  %m_PolyOuts3 = getelementptr inbounds %"class.ClipperLib::ClipperBase", ptr %this1, i32 0, i32 7
  %6 = load i64, ptr %index.addr, align 8
  %call4 = call noundef nonnull align 8 dereferenceable(8) ptr @_ZNSt6vectorIPN10ClipperLib6OutRecESaIS2_EEixEm(ptr noundef nonnull align 8 dereferenceable(24) %m_PolyOuts3, i64 noundef %6) #13
  store ptr null, ptr %call4, align 8
  ret void
}

; Function Attrs: mustprogress nounwind uwtable
define linkonce_odr hidden noundef i64 @_ZNKSt6vectorIPN10ClipperLib6OutRecESaIS2_EE4sizeEv(ptr noundef nonnull align 8 dereferenceable(24) %this) #1 comdat align 2 {
entry:
  %this.addr = alloca ptr, align 8
  store ptr %this, ptr %this.addr, align 8
  %this1 = load ptr, ptr %this.addr, align 8
  %_M_impl = getelementptr inbounds %"struct.std::_Vector_base.16", ptr %this1, i32 0, i32 0
  %_M_finish = getelementptr inbounds %"struct.std::_Vector_base<ClipperLib::OutRec *, std::allocator<ClipperLib::OutRec *>>::_Vector_impl_data", ptr %_M_impl, i32 0, i32 1
  %0 = load ptr, ptr %_M_finish, align 8
  %_M_impl2 = getelementptr inbounds %"struct.std::_Vector_base.16", ptr %this1, i32 0, i32 0
  %_M_start = getelementptr inbounds %"struct.std::_Vector_base<ClipperLib::OutRec *, std::allocator<ClipperLib::OutRec *>>::_Vector_impl_data", ptr %_M_impl2, i32 0, i32 0
  %1 = load ptr, ptr %_M_start, align 8
  %sub.ptr.lhs.cast = ptrtoint ptr %0 to i64
  %sub.ptr.rhs.cast = ptrtoint ptr %1 to i64
  %sub.ptr.sub = sub i64 %sub.ptr.lhs.cast, %sub.ptr.rhs.cast
  %sub.ptr.div = sdiv exact i64 %sub.ptr.sub, 8
  ret i64 %sub.ptr.div
}

; Function Attrs: mustprogress uwtable
define hidden void @_ZN10ClipperLib11ClipperBase17DisposeAllOutRecsEv(ptr noundef nonnull align 8 dereferenceable(144) %this) #0 align 2 {
entry:
  %this.addr = alloca ptr, align 8
  %i = alloca i64, align 8
  store ptr %this, ptr %this.addr, align 8
  %this1 = load ptr, ptr %this.addr, align 8
  store i64 0, ptr %i, align 8
  br label %for.cond

for.cond:                                         ; preds = %for.inc, %entry
  %0 = load i64, ptr %i, align 8
  %m_PolyOuts = getelementptr inbounds %"class.ClipperLib::ClipperBase", ptr %this1, i32 0, i32 7
  %call = call noundef i64 @_ZNKSt6vectorIPN10ClipperLib6OutRecESaIS2_EE4sizeEv(ptr noundef nonnull align 8 dereferenceable(24) %m_PolyOuts) #13
  %cmp = icmp ult i64 %0, %call
  br i1 %cmp, label %for.body, label %for.end

for.body:                                         ; preds = %for.cond
  %1 = load i64, ptr %i, align 8
  call void @_ZN10ClipperLib11ClipperBase13DisposeOutRecEm(ptr noundef nonnull align 8 dereferenceable(144) %this1, i64 noundef %1)
  br label %for.inc

for.inc:                                          ; preds = %for.body
  %2 = load i64, ptr %i, align 8
  %inc = add i64 %2, 1
  store i64 %inc, ptr %i, align 8
  br label %for.cond, !llvm.loop !50

for.end:                                          ; preds = %for.cond
  %m_PolyOuts2 = getelementptr inbounds %"class.ClipperLib::ClipperBase", ptr %this1, i32 0, i32 7
  call void @_ZNSt6vectorIPN10ClipperLib6OutRecESaIS2_EE5clearEv(ptr noundef nonnull align 8 dereferenceable(24) %m_PolyOuts2) #13
  ret void
}