; Function Attrs: mustprogress nounwind uwtable
define hidden void @_ZN10ClipperLib11ClipperBase17DisposeAllOutRecsEv(ptr nocapture noundef nonnull align 8 dereferenceable(144) %this) local_unnamed_addr #9 align 2 personality ptr @__gxx_personality_v0 {
entry:
  %m_PolyOuts = getelementptr inbounds i8, ptr %this, i64 80
  %_M_finish.i = getelementptr inbounds i8, ptr %this, i64 88
  %0 = load ptr, ptr %_M_finish.i, align 8
  %1 = load ptr, ptr %m_PolyOuts, align 8
  %cmp9.not = icmp eq ptr %0, %1
  br i1 %cmp9.not, label %_ZNSt6vectorIPN10ClipperLib6OutRecESaIS2_EE5clearEv.exit, label %for.body

for.body:                                         ; preds = %entry, %_ZN10ClipperLib11ClipperBase13DisposeOutRecEm.exit
  %2 = phi ptr [ %12, %_ZN10ClipperLib11ClipperBase13DisposeOutRecEm.exit ], [ %1, %entry ]
  %i.010 = phi i64 [ %inc, %_ZN10ClipperLib11ClipperBase13DisposeOutRecEm.exit ], [ 0, %entry ]
  %add.ptr.i.i = getelementptr inbounds ptr, ptr %2, i64 %i.010
  %3 = load ptr, ptr %add.ptr.i.i, align 8
  %Pts.i = getelementptr inbounds i8, ptr %3, i64 24
  %4 = load ptr, ptr %Pts.i, align 8
  %tobool.not.i = icmp eq ptr %4, null
  br i1 %tobool.not.i, label %_ZN10ClipperLib11ClipperBase13DisposeOutRecEm.exit, label %if.end.i.i

if.end.i.i:                                       ; preds = %for.body
  %Prev.i.i = getelementptr inbounds i8, ptr %4, i64 32
  %5 = load ptr, ptr %Prev.i.i, align 8
  %Next.i.i = getelementptr inbounds i8, ptr %5, i64 24
  store ptr null, ptr %Next.i.i, align 8
  %6 = load ptr, ptr %Pts.i, align 8
  %tobool.not7.i.i = icmp eq ptr %6, null
  br i1 %tobool.not7.i.i, label %_ZN10ClipperLib11ClipperBase13DisposeOutRecEm.exit, label %while.body.i.i

while.body.i.i:                                   ; preds = %if.end.i.i, %while.body.i.i
  %7 = phi ptr [ %9, %while.body.i.i ], [ %6, %if.end.i.i ]
  %Next1.i.i = getelementptr inbounds i8, ptr %7, i64 24
  %8 = load ptr, ptr %Next1.i.i, align 8
  store ptr %8, ptr %Pts.i, align 8
  tail call void @_ZdlPv(ptr noundef nonnull %7) #31
  %9 = load ptr, ptr %Pts.i, align 8
  %tobool.not.i.i = icmp eq ptr %9, null
  br i1 %tobool.not.i.i, label %_ZN10ClipperLib11ClipperBase13DisposeOutRecEm.exit, label %while.body.i.i, !llvm.loop !15

_ZN10ClipperLib11ClipperBase13DisposeOutRecEm.exit: ; preds = %while.body.i.i, %for.body, %if.end.i.i
  tail call void @_ZdlPv(ptr noundef nonnull %3) #31
  %10 = load ptr, ptr %m_PolyOuts, align 8
  %add.ptr.i4.i = getelementptr inbounds ptr, ptr %10, i64 %i.010
  store ptr null, ptr %add.ptr.i4.i, align 8
  %inc = add nuw i64 %i.010, 1
  %11 = load ptr, ptr %_M_finish.i, align 8
  %12 = load ptr, ptr %m_PolyOuts, align 8
  %sub.ptr.lhs.cast.i = ptrtoint ptr %11 to i64
  %sub.ptr.rhs.cast.i = ptrtoint ptr %12 to i64
  %sub.ptr.sub.i = sub i64 %sub.ptr.lhs.cast.i, %sub.ptr.rhs.cast.i
  %sub.ptr.div.i = ashr exact i64 %sub.ptr.sub.i, 3
  %cmp = icmp ult i64 %inc, %sub.ptr.div.i
  br i1 %cmp, label %for.body, label %for.end, !llvm.loop !52

for.end:                                          ; preds = %_ZN10ClipperLib11ClipperBase13DisposeOutRecEm.exit
  %tobool.not.i.i3 = icmp eq ptr %11, %12
  br i1 %tobool.not.i.i3, label %_ZNSt6vectorIPN10ClipperLib6OutRecESaIS2_EE5clearEv.exit, label %invoke.cont.i.i

invoke.cont.i.i:                                  ; preds = %for.end
  store ptr %12, ptr %_M_finish.i, align 8
  br label %_ZNSt6vectorIPN10ClipperLib6OutRecESaIS2_EE5clearEv.exit

_ZNSt6vectorIPN10ClipperLib6OutRecESaIS2_EE5clearEv.exit: ; preds = %entry, %for.end, %invoke.cont.i.i
  ret void
}